target datalayout = "e-m:e-p270:32:32-p271:32:32-p272:64:64-i64:64-i128:128-f80:128-n8:16:32:64-S128"
target triple = "x86_64-pc-linux-gnu"

%"class.cv::xfeatures2d::DAISY_Impl" = type { %"class.cv::xfeatures2d::DAISY", float, i32, i32, i32, i32, i32, i32, i32, i8, i8, i8, i8, %"class.cv::Mat", %"class.cv::Mat", %"class.cv::Rect_", %"class.std::vector.0", %"class.cv::Mat", %"class.cv::Mat", %"class.cv::Mat", %"class.cv::Mat", %"class.cv::Mat", [360 x double] }
%"class.cv::xfeatures2d::DAISY" = type { %"class.cv::Feature2D" }
%"class.cv::Feature2D" = type { %"class.cv::Algorithm" }
%"class.cv::Algorithm" = type { ptr }
%"class.cv::Rect_" = type { i32, i32, i32, i32 }
%"class.std::vector.0" = type { %"struct.std::_Vector_base.1" }
%"struct.std::_Vector_base.1" = type { %"struct.std::_Vector_base<cv::Mat, std::allocator<cv::Mat>>::_Vector_impl" }
%"struct.std::_Vector_base<cv::Mat, std::allocator<cv::Mat>>::_Vector_impl" = type { %"struct.std::_Vector_base<cv::Mat, std::allocator<cv::Mat>>::_Vector_impl_data" }
%"struct.std::_Vector_base<cv::Mat, std::allocator<cv::Mat>>::_Vector_impl_data" = type { ptr, ptr, ptr }
%"class.cv::Mat" = type { i32, i32, i32, i32, ptr, ptr, ptr, ptr, ptr, ptr, %"struct.cv::MatSize", %"struct.cv::MatStep" }
%"struct.cv::MatSize" = type { ptr }
%"struct.cv::MatStep" = type { ptr, [2 x i64] }

; Function Attrs: mustprogress uwtable
define internal noundef zeroext i1 @_ZN2cv11xfeatures2dL16get_descriptor_hEddiPfPdPKSt6vectorINS_3MatESaIS4_EERKS4_PS9_PKdiiiibNS0_5DAISY17NormalizationTypeE(double noundef %0, double noundef %1, i32 noundef %2, ptr noundef %3, ptr noundef %4, ptr noundef %5, ptr noundef nonnull align 8 dereferenceable(96) %6, ptr noundef %7, ptr noundef %8, i32 noundef %9, i32 noundef %10, i32 noundef %11, i32 noundef %12, i1 noundef zeroext %13, i32 noundef %14) #4 {
  %16 = alloca double, align 8
  %17 = alloca double, align 8
  %18 = alloca i32, align 4
  %19 = alloca ptr, align 8
  %20 = alloca ptr, align 8
  %21 = alloca ptr, align 8
  %22 = alloca ptr, align 8
  %23 = alloca ptr, align 8
  %24 = alloca ptr, align 8
  %25 = alloca i32, align 4
  %26 = alloca i32, align 4
  %27 = alloca i32, align 4
  %28 = alloca i32, align 4
  %29 = alloca i8, align 1
  %30 = alloca i32, align 4
  %31 = alloca i8, align 1
  store double %0, ptr %16, align 8, !tbaa !7
  store double %1, ptr %17, align 8, !tbaa !7
  store i32 %2, ptr %18, align 4, !tbaa !3
  store ptr %3, ptr %19, align 8, !tbaa !20
  store ptr %4, ptr %20, align 8, !tbaa !53
  store ptr %5, ptr %21, align 8, !tbaa !50
  store ptr %6, ptr %22, align 8, !tbaa !52
  store ptr %7, ptr %23, align 8, !tbaa !52
  store ptr %8, ptr %24, align 8, !tbaa !53
  store i32 %9, ptr %25, align 4, !tbaa !3
  store i32 %10, ptr %26, align 4, !tbaa !3
  store i32 %11, ptr %27, align 4, !tbaa !3
  store i32 %12, ptr %28, align 4, !tbaa !3
  %32 = zext i1 %13 to i8
  store i8 %32, ptr %29, align 1, !tbaa !55
  store i32 %14, ptr %30, align 4, !tbaa !56
  call void @llvm.lifetime.start.p0(i64 1, ptr %31) #24
  %33 = load double, ptr %16, align 8, !tbaa !7
  %34 = load double, ptr %17, align 8, !tbaa !7
  %35 = load i32, ptr %18, align 4, !tbaa !3
  %36 = load ptr, ptr %19, align 8, !tbaa !20
  %37 = load ptr, ptr %20, align 8, !tbaa !53
  %38 = load ptr, ptr %21, align 8, !tbaa !50
  %39 = load ptr, ptr %22, align 8, !tbaa !52
  %40 = load ptr, ptr %23, align 8, !tbaa !52
  %41 = load ptr, ptr %24, align 8, !tbaa !53
  %42 = load i32, ptr %25, align 4, !tbaa !3
  %43 = load i8, ptr %29, align 1, !tbaa !55, !range !47, !noundef !48
  %44 = trunc i8 %43 to i1
  %45 = call noundef zeroext i1 @_ZN2cv11xfeatures2dL29get_unnormalized_descriptor_hEddiPfPdPKSt6vectorINS_3MatESaIS4_EERKS4_PS9_PKdib(double noundef %33, double noundef %34, i32 noundef %35, ptr noundef %36, ptr noundef %37, ptr noundef %38, ptr noundef nonnull align 8 dereferenceable(96) %39, ptr noundef %40, ptr noundef %41, i32 noundef %42, i1 noundef zeroext %44)
  %46 = zext i1 %45 to i8
  store i8 %46, ptr %31, align 1, !tbaa !55
  %47 = load i8, ptr %31, align 1, !tbaa !55, !range !47, !noundef !48
  %48 = trunc i8 %47 to i1
  br i1 %48, label %49, label %55

49:                                               ; preds = %15
  %50 = load ptr, ptr %19, align 8, !tbaa !20
  %51 = load i32, ptr %30, align 4, !tbaa !56
  %52 = load i32, ptr %27, align 4, !tbaa !3
  %53 = load i32, ptr %26, align 4, !tbaa !3
  %54 = load i32, ptr %28, align 4, !tbaa !3
  call void @_ZN2cv11xfeatures2dL20normalize_descriptorEPfNS0_5DAISY17NormalizationTypeEiii(ptr noundef %50, i32 noundef %51, i32 noundef %52, i32 noundef %53, i32 noundef %54)
  br label %55

55:                                               ; preds = %49, %15
  %56 = load i8, ptr %31, align 1, !tbaa !55, !range !47, !noundef !48
  %57 = trunc i8 %56 to i1
  call void @llvm.lifetime.end.p0(i64 1, ptr %31) #24
  ret i1 %57
}

; Function Attrs: mustprogress uwtable
define hidden noundef zeroext i1 @_ZNK2cv11xfeatures2d10DAISY_Impl13GetDescriptorEddiPfPd(ptr noundef nonnull align 8 dereferenceable(3640) %0, double noundef %1, double noundef %2, i32 noundef %3, ptr noundef %4, ptr noundef %5) unnamed_addr #4 align 2 {
  %7 = alloca ptr, align 8
  %8 = alloca double, align 8
  %9 = alloca double, align 8
  %10 = alloca i32, align 4
  %11 = alloca ptr, align 8
  %12 = alloca ptr, align 8
  store ptr %0, ptr %7, align 8, !tbaa !18
  store double %1, ptr %8, align 8, !tbaa !7
  store double %2, ptr %9, align 8, !tbaa !7
  store i32 %3, ptr %10, align 4, !tbaa !3
  store ptr %4, ptr %11, align 8, !tbaa !20
  store ptr %5, ptr %12, align 8, !tbaa !53
  %13 = load ptr, ptr %7, align 8
  %14 = load double, ptr %8, align 8, !tbaa !7
  %15 = load double, ptr %9, align 8, !tbaa !7
  %16 = load i32, ptr %10, align 4, !tbaa !3
  %17 = load ptr, ptr %11, align 8, !tbaa !20
  %18 = load ptr, ptr %12, align 8, !tbaa !53
  %19 = getelementptr inbounds nuw %"class.cv::xfeatures2d::DAISY_Impl", ptr %13, i32 0, i32 16
  %20 = getelementptr inbounds nuw %"class.cv::xfeatures2d::DAISY_Impl", ptr %13, i32 0, i32 20
  %21 = getelementptr inbounds nuw %"class.cv::xfeatures2d::DAISY_Impl", ptr %13, i32 0, i32 21
  %22 = getelementptr inbounds nuw %"class.cv::xfeatures2d::DAISY_Impl", ptr %13, i32 0, i32 22
  %23 = getelementptr inbounds [360 x double], ptr %22, i64 0, i64 0
  %24 = getelementptr inbounds nuw %"class.cv::xfeatures2d::DAISY_Impl", ptr %13, i32 0, i32 3
  %25 = load i32, ptr %24, align 8, !tbaa !22
  %26 = getelementptr inbounds nuw %"class.cv::xfeatures2d::DAISY_Impl", ptr %13, i32 0, i32 4
  %27 = load i32, ptr %26, align 4, !tbaa !43
  %28 = getelementptr inbounds nuw %"class.cv::xfeatures2d::DAISY_Impl", ptr %13, i32 0, i32 7
  %29 = load i32, ptr %28, align 8, !tbaa !44
  %30 = getelementptr inbounds nuw %"class.cv::xfeatures2d::DAISY_Impl", ptr %13, i32 0, i32 6
  %31 = load i32, ptr %30, align 4, !tbaa !45
  %32 = getelementptr inbounds nuw %"class.cv::xfeatures2d::DAISY_Impl", ptr %13, i32 0, i32 11
  %33 = load i8, ptr %32, align 2, !tbaa !46, !range !47, !noundef !48
  %34 = trunc i8 %33 to i1
  %35 = getelementptr inbounds nuw %"class.cv::xfeatures2d::DAISY_Impl", ptr %13, i32 0, i32 5
  %36 = load i32, ptr %35, align 8, !tbaa !49
  %37 = call noundef zeroext i1 @_ZN2cv11xfeatures2dL16get_descriptor_hEddiPfPdPKSt6vectorINS_3MatESaIS4_EERKS4_PS9_PKdiiiibNS0_5DAISY17NormalizationTypeE(double noundef %14, double noundef %15, i32 noundef %16, ptr noundef %17, ptr noundef %18, ptr noundef %19, ptr noundef nonnull align 8 dereferenceable(96) %20, ptr noundef %21, ptr noundef %23, i32 noundef %25, i32 noundef %27, i32 noundef %29, i32 noundef %31, i1 noundef zeroext %34, i32 noundef %36)
  ret i1 %37
}