; Function Attrs: mustprogress uwtable
define hidden noundef zeroext i1 @_ZNK2cv11xfeatures2d10DAISY_Impl13GetDescriptorEddiPfPd(ptr noundef nonnull align 8 dereferenceable(3640) %0, double noundef %1, double noundef %2, i32 noundef %3, ptr noundef %4, ptr noundef readonly captures(none) %5) unnamed_addr #1 align 2 {
  %7 = getelementptr inbounds nuw i8, ptr %0, i64 256
  %8 = getelementptr inbounds nuw i8, ptr %0, i64 568
  %9 = getelementptr inbounds nuw i8, ptr %0, i64 664
  %10 = getelementptr inbounds nuw i8, ptr %0, i64 760
  %11 = getelementptr inbounds nuw i8, ptr %0, i64 16
  %12 = load i32, ptr %11, align 8, !tbaa !3
  %13 = getelementptr inbounds nuw i8, ptr %0, i64 20
  %14 = load i32, ptr %13, align 4, !tbaa !28
  %15 = getelementptr inbounds nuw i8, ptr %0, i64 32
  %16 = load i32, ptr %15, align 8, !tbaa !29
  %17 = getelementptr inbounds nuw i8, ptr %0, i64 28
  %18 = load i32, ptr %17, align 4, !tbaa !30
  %19 = getelementptr inbounds nuw i8, ptr %0, i64 42
  %20 = load i8, ptr %19, align 2, !tbaa !31, !range !32, !noundef !33
  %21 = trunc nuw i8 %20 to i1
  %22 = getelementptr inbounds nuw i8, ptr %0, i64 24
  %23 = load i32, ptr %22, align 8, !tbaa !34
  %24 = tail call fastcc noundef zeroext i1 @_ZN2cv11xfeatures2dL29get_unnormalized_descriptor_hEddiPfPdPKSt6vectorINS_3MatESaIS4_EERKS4_PS9_PKdib(double noundef %1, double noundef %2, i32 noundef %3, ptr noundef %4, ptr noundef readonly %5, ptr noundef nonnull readonly %7, ptr noundef nonnull align 8 dereferenceable(96) %8, ptr noundef nonnull readonly %9, ptr noundef nonnull readonly %10, i32 noundef %12, i1 noundef zeroext %21)
  br i1 %24, label %25, label %_ZN2cv11xfeatures2dL16get_descriptor_hEddiPfPdPKSt6vectorINS_3MatESaIS4_EERKS4_PS9_PKdiiiibNS0_5DAISY17NormalizationTypeE.exit

25:                                               ; preds = %6
  tail call fastcc void @_ZN2cv11xfeatures2dL20normalize_descriptorEPfNS0_5DAISY17NormalizationTypeEiii(ptr noundef %4, i32 noundef %23, i32 noundef %16, i32 noundef %14, i32 noundef %18)
  br label %_ZN2cv11xfeatures2dL16get_descriptor_hEddiPfPdPKSt6vectorINS_3MatESaIS4_EERKS4_PS9_PKdiiiibNS0_5DAISY17NormalizationTypeE.exit

_ZN2cv11xfeatures2dL16get_descriptor_hEddiPfPdPKSt6vectorINS_3MatESaIS4_EERKS4_PS9_PKdiiiibNS0_5DAISY17NormalizationTypeE.exit: ; preds = %6, %25
  ret i1 %24
}